target datalayout = "e-m:e-p270:32:32-p271:32:32-p272:64:64-i64:64-i128:128-f80:128-n8:16:32:64-S128"
target triple = "x86_64-pc-linux-gnu"

%class.ZMarkCacheEntry = type { ptr, i32, i64 }
%class.ZMarkCache = type { i64, [1024 x %class.ZMarkCacheEntry] }

@_ZN15ZMarkCacheEntryC1Ev = hidden unnamed_addr alias void (ptr), ptr @_ZN15ZMarkCacheEntryC2Ev

; Function Attrs: mustprogress nounwind uwtable
define linkonce_odr hidden noundef i32 @_Z23count_trailing_zeros_64m(i64 noundef %0) #1 comdat {
  %2 = alloca i64, align 8
  store i64 %0, ptr %2, align 8
  %3 = load i64, ptr %2, align 8
  %4 = call i64 @llvm.cttz.i64(i64 %3, i1 true)
  %5 = trunc i64 %4 to i32
  ret i32 %5
}

; Function Attrs: mustprogress nounwind uwtable
define linkonce_odr hidden noundef i32 @_Z20count_trailing_zerosImTnNSt9enable_ifIXcvbsr3std11is_integralIT_EE5valueEiE4typeELi0ETnNS0_IXcvblestS1_Lm8EEiE4typeELi0EEjS1_(i64 noundef %0) #1 comdat {
  %2 = alloca i64, align 8
  store i64 %0, ptr %2, align 8
  %3 = load i64, ptr %2, align 8
  %4 = call noundef i32 @_Z23count_trailing_zeros_64m(i64 noundef %3)
  ret i32 %4
}

; Function Attrs: mustprogress nounwind uwtable
define linkonce_odr hidden noundef i32 @_Z11log2i_exactImTnNSt9enable_ifIXcvbsr3std11is_integralIT_EE5valueEiE4typeELi0EEiS1_(i64 noundef %0) #1 comdat {
  %2 = alloca i64, align 8
  store i64 %0, ptr %2, align 8
  %3 = load i64, ptr %2, align 8
  %4 = call noundef i32 @_Z20count_trailing_zerosImTnNSt9enable_ifIXcvbsr3std11is_integralIT_EE5valueEiE4typeELi0ETnNS0_IXcvblestS1_Lm8EEiE4typeELi0EEjS1_(i64 noundef %3)
  ret i32 %4
}

; Function Attrs: mustprogress nounwind uwtable
define linkonce_odr hidden noundef i32 @_Z10exact_log2l(i64 noundef %0) #1 comdat {
  %2 = alloca i64, align 8
  store i64 %0, ptr %2, align 8
  %3 = load i64, ptr %2, align 8
  %4 = call noundef i32 @_Z11log2i_exactImTnNSt9enable_ifIXcvbsr3std11is_integralIT_EE5valueEiE4typeELi0EEiS1_(i64 noundef %3)
  ret i32 %4
}

; Function Attrs: mustprogress nounwind uwtable
define internal noundef i64 @_ZL17shift_for_stripesm(i64 noundef %0) #1 {
  %2 = alloca i64, align 8
  store i64 %0, ptr %2, align 8
  %3 = load i64, ptr %2, align 8
  %4 = call noundef i32 @_Z10exact_log2l(i64 noundef %3)
  %5 = sext i32 %4 to i64
  %6 = add i64 21, %5
  ret i64 %6
}

; Function Attrs: mustprogress nounwind uwtable
define hidden void @_ZN10ZMarkCacheC2Em(ptr noundef nonnull align 8 dereferenceable(24584) %0, i64 noundef %1) unnamed_addr #1 align 2 {
  %3 = alloca ptr, align 8
  %4 = alloca i64, align 8
  store ptr %0, ptr %3, align 8
  store i64 %1, ptr %4, align 8
  %5 = load ptr, ptr %3, align 8
  %6 = getelementptr inbounds %class.ZMarkCache, ptr %5, i32 0, i32 0
  %7 = load i64, ptr %4, align 8
  %8 = call noundef i64 @_ZL17shift_for_stripesm(i64 noundef %7)
  store i64 %8, ptr %6, align 8
  %9 = getelementptr inbounds %class.ZMarkCache, ptr %5, i32 0, i32 1
  %10 = getelementptr inbounds [1024 x %class.ZMarkCacheEntry], ptr %9, i32 0, i32 0
  %11 = getelementptr inbounds %class.ZMarkCacheEntry, ptr %10, i64 1024
  br label %12

12:                                               ; preds = %12, %2
  %13 = phi ptr [ %10, %2 ], [ %14, %12 ]
  call void @_ZN15ZMarkCacheEntryC1Ev(ptr noundef nonnull align 8 dereferenceable(24) %13)
  %14 = getelementptr inbounds %class.ZMarkCacheEntry, ptr %13, i64 1
  %15 = icmp eq ptr %14, %11
  br i1 %15, label %16, label %12

16:                                               ; preds = %12
  ret void
}