; Function Attrs: mustprogress nofree norecurse nosync nounwind memory(argmem: write) uwtable
define hidden void @_ZN10ZMarkCacheC2Em(ptr nocapture noundef nonnull writeonly align 8 dereferenceable(24584) %0, i64 noundef %1) unnamed_addr #1 align 2 {
  %3 = tail call range(i64 0, 65) i64 @llvm.cttz.i64(i64 %1, i1 true)
  %4 = add nuw nsw i64 %3, 21
  store i64 %4, ptr %0, align 8
  br label %5

5:                                                ; preds = %5, %2
  %.idx = phi i64 [ 8, %2 ], [ %.add, %5 ]
  %.ptr = getelementptr inbounds i8, ptr %0, i64 %.idx
  store ptr null, ptr %.ptr, align 8
  %6 = getelementptr inbounds i8, ptr %.ptr, i64 8
  store i32 0, ptr %6, align 8
  %7 = getelementptr inbounds i8, ptr %.ptr, i64 16
  store i64 0, ptr %7, align 8
  %.add = add nuw nsw i64 %.idx, 24
  %8 = icmp eq i64 %.add, 24584
  br i1 %8, label %9, label %5

9:                                                ; preds = %5
  ret void
}